target datalayout = "e-m:e-p270:32:32-p271:32:32-p272:64:64-i64:64-i128:128-f80:128-n8:16:32:64-S128"
target triple = "x86_64-pc-linux-gnu"

%"class.LIEF::PE::RelocationEntry" = type { %"class.LIEF::Relocation.base", i16, i32, ptr }
%"class.LIEF::Relocation.base" = type <{ %"class.LIEF::Object", i64, i8 }>
%"class.LIEF::Object" = type { ptr }

; Function Attrs: mustprogress nounwind uwtable
define linkonce_odr hidden noundef i32 @_ZNK4LIEF2PE15RelocationEntry4typeEv(ptr noundef nonnull align 8 dereferenceable(32) %0) #1 comdat align 2 {
  %2 = alloca ptr, align 8
  store ptr %0, ptr %2, align 8, !tbaa !19
  %3 = load ptr, ptr %2, align 8
  %4 = getelementptr inbounds nuw %"class.LIEF::PE::RelocationEntry", ptr %3, i32 0, i32 2
  %5 = load i32, ptr %4, align 4, !tbaa !44
  ret i32 %5
}

; Function Attrs: mustprogress nounwind uwtable
define noundef i64 @_ZNK4LIEF2PE15RelocationEntry4sizeEv(ptr noundef nonnull align 8 dereferenceable(32) %0) unnamed_addr #1 align 2 {
  %2 = alloca i64, align 8
  %3 = alloca ptr, align 8
  store ptr %0, ptr %3, align 8, !tbaa !19
  %4 = load ptr, ptr %3, align 8
  %5 = call noundef i32 @_ZNK4LIEF2PE15RelocationEntry4typeEv(ptr noundef nonnull align 8 dereferenceable(32) %4)
  switch i32 %5, label %10 [
    i32 2, label %6
    i32 1, label %6
    i32 4, label %6
    i32 3, label %7
    i32 10, label %8
    i32 0, label %9
  ]

6:                                                ; preds = %1, %1, %1
  store i64 16, ptr %2, align 8
  br label %11

7:                                                ; preds = %1
  store i64 32, ptr %2, align 8
  br label %11

8:                                                ; preds = %1
  store i64 64, ptr %2, align 8
  br label %11

9:                                                ; preds = %1
  br label %10

10:                                               ; preds = %1, %9
  store i64 0, ptr %2, align 8
  br label %11

11:                                               ; preds = %10, %8, %7, %6
  %12 = load i64, ptr %2, align 8
  ret i64 %12
}