; Function Attrs: mustprogress nofree norecurse nosync nounwind willreturn memory(argmem: read) uwtable
define noundef range(i64 0, 65) i64 @_ZNK4LIEF2PE15RelocationEntry4sizeEv(ptr noundef nonnull readonly align 8 captures(none) dereferenceable(32) %0) unnamed_addr #4 align 2 {
  %2 = getelementptr inbounds nuw i8, ptr %0, i64 20
  %3 = load i32, ptr %2, align 4, !tbaa !30
  %switch.tableidx = add i32 %3, -1
  %4 = icmp ult i32 %switch.tableidx, 10
  br i1 %4, label %switch.lookup, label %6

switch.lookup:                                    ; preds = %1
  %5 = zext nneg i32 %switch.tableidx to i64
  %switch.gep = getelementptr inbounds nuw [10 x i64], ptr @switch.table._ZNK4LIEF2PE15RelocationEntry4sizeEv, i64 0, i64 %5
  %switch.load = load i64, ptr %switch.gep, align 8
  br label %6

6:                                                ; preds = %1, %switch.lookup
  %.0 = phi i64 [ %switch.load, %switch.lookup ], [ 0, %1 ]
  ret i64 %.0
}